target datalayout = "e-m:e-p270:32:32-p271:32:32-p272:64:64-i64:64-i128:128-f80:128-n8:16:32:64-S128"
target triple = "x86_64-pc-linux-gnu"

; Function Attrs: nounwind uwtable
define i32 @Java_sun_nio_ch_UnixDomainSockets_socket0(ptr noundef %0, ptr noundef %1) #0 {
  %3 = alloca i32, align 4
  %4 = alloca ptr, align 8
  %5 = alloca ptr, align 8
  %6 = alloca i32, align 4
  store ptr %0, ptr %4, align 8
  store ptr %1, ptr %5, align 8
  %7 = call i32 @socket(i32 noundef 1, i32 noundef 1, i32 noundef 0) #8
  store i32 %7, ptr %6, align 4
  %8 = load i32, ptr %6, align 4
  %9 = icmp slt i32 %8, 0
  br i1 %9, label %10, label %15

10:                                               ; preds = %2
  %11 = load ptr, ptr %4, align 8
  %12 = call ptr @__errno_location() #9
  %13 = load i32, ptr %12, align 4
  %14 = call i32 @handleSocketError(ptr noundef %11, i32 noundef %13)
  store i32 %14, ptr %3, align 4
  br label %17

15:                                               ; preds = %2
  %16 = load i32, ptr %6, align 4
  store i32 %16, ptr %3, align 4
  br label %17

17:                                               ; preds = %15, %10
  %18 = load i32, ptr %3, align 4
  ret i32 %18
}