; Function Attrs: nounwind uwtable
define i32 @Java_sun_nio_ch_UnixDomainSockets_socket0(ptr noundef %0, ptr nocapture noundef readnone %1) local_unnamed_addr #0 {
  %3 = tail call i32 @socket(i32 noundef 1, i32 noundef 1, i32 noundef 0) #9
  %4 = icmp slt i32 %3, 0
  br i1 %4, label %5, label %9

5:                                                ; preds = %2
  %6 = tail call ptr @__errno_location() #10
  %7 = load i32, ptr %6, align 4
  %8 = tail call i32 @handleSocketError(ptr noundef %0, i32 noundef %7) #9
  br label %9

9:                                                ; preds = %2, %5
  %.0 = phi i32 [ %8, %5 ], [ %3, %2 ]
  ret i32 %.0
}